target datalayout = "e-m:e-p270:32:32-p271:32:32-p272:64:64-i64:64-i128:128-f80:128-n8:16:32:64-S128"
target triple = "x86_64-pc-linux-gnu"

@.str.3 = private unnamed_addr constant [49 x i8] c"start >= 0 && length > 0 && length <= 32 - start\00", align 1
@.str.4 = private unnamed_addr constant [100 x i8] c"/home/dtcxzyw/WorkSpace/Projects/compilers/llvm-opt-benchmark/bench/qemu/qemu/include/qemu/bitops.h\00", align 1
@__PRETTY_FUNCTION__.sextract32 = private unnamed_addr constant [39 x i8] c"int32_t sextract32(uint32_t, int, int)\00", align 1
@__PRETTY_FUNCTION__.extract32 = private unnamed_addr constant [39 x i8] c"uint32_t extract32(uint32_t, int, int)\00", align 1
@__PRETTY_FUNCTION__.deposit32 = private unnamed_addr constant [49 x i8] c"uint32_t deposit32(uint32_t, int, int, uint32_t)\00", align 1

; Function Attrs: inlinehint nounwind sspstrong uwtable
define internal i32 @deposit32(i32 noundef %0, i32 noundef %1, i32 noundef %2, i32 noundef %3) #2 {
  %5 = alloca i32, align 4
  %6 = alloca i32, align 4
  %7 = alloca i32, align 4
  %8 = alloca i32, align 4
  %9 = alloca i32, align 4
  store i32 %0, ptr %5, align 4
  store i32 %1, ptr %6, align 4
  store i32 %2, ptr %7, align 4
  store i32 %3, ptr %8, align 4
  call void @llvm.lifetime.start.p0(i64 4, ptr %9) #10
  store i32 0, ptr %9, align 4, !annotation !4
  %10 = load i32, ptr %6, align 4
  %11 = icmp sge i32 %10, 0
  br i1 %11, label %12, label %21

12:                                               ; preds = %4
  %13 = load i32, ptr %7, align 4
  %14 = icmp sgt i32 %13, 0
  br i1 %14, label %15, label %21

15:                                               ; preds = %12
  %16 = load i32, ptr %7, align 4
  %17 = load i32, ptr %6, align 4
  %18 = sub i32 32, %17
  %19 = icmp sle i32 %16, %18
  br i1 %19, label %20, label %21

20:                                               ; preds = %15
  br label %22

21:                                               ; preds = %15, %12, %4
  call void @__assert_fail(ptr noundef @.str.3, ptr noundef @.str.4, i32 noundef 649, ptr noundef @__PRETTY_FUNCTION__.deposit32) #11
  unreachable

22:                                               ; preds = %20
  %23 = load i32, ptr %7, align 4
  %24 = sub i32 32, %23
  %25 = lshr i32 -1, %24
  %26 = load i32, ptr %6, align 4
  %27 = shl i32 %25, %26
  store i32 %27, ptr %9, align 4
  %28 = load i32, ptr %5, align 4
  %29 = load i32, ptr %9, align 4
  %30 = xor i32 %29, -1
  %31 = and i32 %28, %30
  %32 = load i32, ptr %8, align 4
  %33 = load i32, ptr %6, align 4
  %34 = shl i32 %32, %33
  %35 = load i32, ptr %9, align 4
  %36 = and i32 %34, %35
  %37 = or i32 %31, %36
  call void @llvm.lifetime.end.p0(i64 4, ptr %9) #10
  ret i32 %37
}

; Function Attrs: inlinehint nounwind sspstrong uwtable
define internal i32 @extract32(i32 noundef %0, i32 noundef %1, i32 noundef %2) #2 {
  %4 = alloca i32, align 4
  %5 = alloca i32, align 4
  %6 = alloca i32, align 4
  store i32 %0, ptr %4, align 4
  store i32 %1, ptr %5, align 4
  store i32 %2, ptr %6, align 4
  %7 = load i32, ptr %5, align 4
  %8 = icmp sge i32 %7, 0
  br i1 %8, label %9, label %18

9:                                                ; preds = %3
  %10 = load i32, ptr %6, align 4
  %11 = icmp sgt i32 %10, 0
  br i1 %11, label %12, label %18

12:                                               ; preds = %9
  %13 = load i32, ptr %6, align 4
  %14 = load i32, ptr %5, align 4
  %15 = sub i32 32, %14
  %16 = icmp sle i32 %13, %15
  br i1 %16, label %17, label %18

17:                                               ; preds = %12
  br label %19

18:                                               ; preds = %12, %9, %3
  call void @__assert_fail(ptr noundef @.str.3, ptr noundef @.str.4, i32 noundef 517, ptr noundef @__PRETTY_FUNCTION__.extract32) #11
  unreachable

19:                                               ; preds = %17
  %20 = load i32, ptr %4, align 4
  %21 = load i32, ptr %5, align 4
  %22 = lshr i32 %20, %21
  %23 = load i32, ptr %6, align 4
  %24 = sub i32 32, %23
  %25 = lshr i32 -1, %24
  %26 = and i32 %22, %25
  ret i32 %26
}

; Function Attrs: inlinehint nounwind sspstrong uwtable
define internal i32 @sextract32(i32 noundef %0, i32 noundef %1, i32 noundef %2) #2 {
  %4 = alloca i32, align 4
  %5 = alloca i32, align 4
  %6 = alloca i32, align 4
  store i32 %0, ptr %4, align 4
  store i32 %1, ptr %5, align 4
  store i32 %2, ptr %6, align 4
  %7 = load i32, ptr %5, align 4
  %8 = icmp sge i32 %7, 0
  br i1 %8, label %9, label %18

9:                                                ; preds = %3
  %10 = load i32, ptr %6, align 4
  %11 = icmp sgt i32 %10, 0
  br i1 %11, label %12, label %18

12:                                               ; preds = %9
  %13 = load i32, ptr %6, align 4
  %14 = load i32, ptr %5, align 4
  %15 = sub i32 32, %14
  %16 = icmp sle i32 %13, %15
  br i1 %16, label %17, label %18

17:                                               ; preds = %12
  br label %19

18:                                               ; preds = %12, %9, %3
  call void @__assert_fail(ptr noundef @.str.3, ptr noundef @.str.4, i32 noundef 596, ptr noundef @__PRETTY_FUNCTION__.sextract32) #11
  unreachable

19:                                               ; preds = %17
  %20 = load i32, ptr %4, align 4
  %21 = load i32, ptr %6, align 4
  %22 = sub i32 32, %21
  %23 = load i32, ptr %5, align 4
  %24 = sub i32 %22, %23
  %25 = shl i32 %20, %24
  %26 = load i32, ptr %6, align 4
  %27 = sub i32 32, %26
  %28 = ashr i32 %25, %27
  ret i32 %28
}

; Function Attrs: nounwind sspstrong uwtable
define internal void @check_size_align(i32 noundef %0, i32 noundef %1, i32 noundef %2) #0 {
  %4 = alloca i32, align 4
  %5 = alloca i32, align 4
  %6 = alloca i32, align 4
  %7 = alloca i32, align 4
  store i32 %0, ptr %4, align 4
  store i32 %1, ptr %5, align 4
  store i32 %2, ptr %6, align 4
  call void @llvm.lifetime.start.p0(i64 4, ptr %7) #10
  store i32 0, ptr %7, align 4, !annotation !4
  %8 = load i32, ptr %4, align 4
  switch i32 %8, label %18 [
    i32 8, label %9
    i32 16, label %9
    i32 32, label %9
  ]

9:                                                ; preds = %3, %3, %3
  br label %10

10:                                               ; preds = %9
  %11 = load i32, ptr %4, align 4
  %12 = load i32, ptr %5, align 4
  %13 = icmp ule i32 %11, %12
  br i1 %13, label %15, label %14

14:                                               ; preds = %10
  unreachable

15:                                               ; preds = %10
  br label %16

16:                                               ; preds = %15
  br label %17

17:                                               ; preds = %16
  br label %27

18:                                               ; preds = %3
  br label %19

19:                                               ; preds = %18
  %20 = load i32, ptr %4, align 4
  %21 = load i32, ptr %5, align 4
  %22 = icmp eq i32 %20, %21
  br i1 %22, label %24, label %23

23:                                               ; preds = %19
  unreachable

24:                                               ; preds = %19
  br label %25

25:                                               ; preds = %24
  br label %26

26:                                               ; preds = %25
  br label %27

27:                                               ; preds = %26, %17
  br label %28

28:                                               ; preds = %27
  %29 = load i32, ptr %5, align 4
  %30 = icmp ule i32 %29, 2048
  br i1 %30, label %32, label %31

31:                                               ; preds = %28
  unreachable

32:                                               ; preds = %28
  br label %33

33:                                               ; preds = %32
  br label %34

34:                                               ; preds = %33
  %35 = load i32, ptr %5, align 4
  %36 = icmp uge i32 %35, 16
  %37 = select i1 %36, i32 15, i32 7
  store i32 %37, ptr %7, align 4
  br label %38

38:                                               ; preds = %34
  %39 = load i32, ptr %5, align 4
  %40 = load i32, ptr %7, align 4
  %41 = and i32 %39, %40
  %42 = icmp eq i32 %41, 0
  br i1 %42, label %44, label %43

43:                                               ; preds = %38
  unreachable

44:                                               ; preds = %38
  br label %45

45:                                               ; preds = %44
  br label %46

46:                                               ; preds = %45
  br label %47

47:                                               ; preds = %46
  %48 = load i32, ptr %6, align 4
  %49 = load i32, ptr %7, align 4
  %50 = and i32 %48, %49
  %51 = icmp eq i32 %50, 0
  br i1 %51, label %53, label %52

52:                                               ; preds = %47
  unreachable

53:                                               ; preds = %47
  br label %54

54:                                               ; preds = %53
  br label %55

55:                                               ; preds = %54
  call void @llvm.lifetime.end.p0(i64 4, ptr %7) #10
  ret void
}

; Function Attrs: nounwind sspstrong uwtable
define dso_local i32 @simd_desc(i32 noundef %0, i32 noundef %1, i32 noundef %2) #0 {
  %4 = alloca i32, align 4
  %5 = alloca i32, align 4
  %6 = alloca i32, align 4
  %7 = alloca i32, align 4
  store i32 %0, ptr %4, align 4
  store i32 %1, ptr %5, align 4
  store i32 %2, ptr %6, align 4
  call void @llvm.lifetime.start.p0(i64 4, ptr %7) #10
  store i32 0, ptr %7, align 4
  %8 = load i32, ptr %4, align 4
  %9 = load i32, ptr %5, align 4
  call void @check_size_align(i32 noundef %8, i32 noundef %9, i32 noundef 0)
  br label %10

10:                                               ; preds = %3
  %11 = load i32, ptr %6, align 4
  %12 = load i32, ptr %6, align 4
  %13 = call i32 @sextract32(i32 noundef %12, i32 noundef 0, i32 noundef 22)
  %14 = icmp eq i32 %11, %13
  br i1 %14, label %21, label %15

15:                                               ; preds = %10
  %16 = load i32, ptr %6, align 4
  %17 = load i32, ptr %6, align 4
  %18 = call i32 @extract32(i32 noundef %17, i32 noundef 0, i32 noundef 22)
  %19 = icmp eq i32 %16, %18
  br i1 %19, label %21, label %20

20:                                               ; preds = %15
  unreachable

21:                                               ; preds = %15, %10
  br label %22

22:                                               ; preds = %21
  br label %23

23:                                               ; preds = %22
  %24 = load i32, ptr %4, align 4
  %25 = udiv i32 %24, 8
  %26 = sub i32 %25, 1
  store i32 %26, ptr %4, align 4
  %27 = load i32, ptr %5, align 4
  %28 = udiv i32 %27, 8
  %29 = sub i32 %28, 1
  store i32 %29, ptr %5, align 4
  %30 = load i32, ptr %4, align 4
  %31 = load i32, ptr %5, align 4
  %32 = icmp eq i32 %30, %31
  br i1 %32, label %33, label %34

33:                                               ; preds = %23
  store i32 2, ptr %4, align 4
  br label %34

34:                                               ; preds = %33, %23
  %35 = load i32, ptr %7, align 4
  %36 = load i32, ptr %4, align 4
  %37 = call i32 @deposit32(i32 noundef %35, i32 noundef 8, i32 noundef 2, i32 noundef %36)
  store i32 %37, ptr %7, align 4
  %38 = load i32, ptr %7, align 4
  %39 = load i32, ptr %5, align 4
  %40 = call i32 @deposit32(i32 noundef %38, i32 noundef 0, i32 noundef 8, i32 noundef %39)
  store i32 %40, ptr %7, align 4
  %41 = load i32, ptr %7, align 4
  %42 = load i32, ptr %6, align 4
  %43 = call i32 @deposit32(i32 noundef %41, i32 noundef 10, i32 noundef 22, i32 noundef %42)
  store i32 %43, ptr %7, align 4
  %44 = load i32, ptr %7, align 4
  call void @llvm.lifetime.end.p0(i64 4, ptr %7) #10
  ret i32 %44
}