; Function Attrs: mustprogress nofree norecurse nosync nounwind sspstrong willreturn memory(inaccessiblemem: write) uwtable
define dso_local i32 @simd_desc(i32 noundef %0, i32 noundef %1, i32 noundef %2) local_unnamed_addr #0 {
  switch i32 %0, label %6 [
    i32 8, label %4
    i32 16, label %4
    i32 32, label %4
  ]

4:                                                ; preds = %3, %3, %3
  %5 = icmp ule i32 %0, %1
  br label %check_size_align.exit

6:                                                ; preds = %3
  %7 = icmp eq i32 %0, %1
  br label %check_size_align.exit

check_size_align.exit:                            ; preds = %4, %6
  %.sink.i = phi i1 [ %5, %4 ], [ %7, %6 ]
  tail call void @llvm.assume(i1 %.sink.i)
  %8 = icmp ult i32 %1, 2049
  tail call void @llvm.assume(i1 %8)
  %9 = icmp samesign ugt i32 %1, 15
  %10 = select i1 %9, i32 15, i32 7
  %11 = and i32 %10, %1
  %12 = icmp eq i32 %11, 0
  tail call void @llvm.assume(i1 %12)
  %13 = add i32 %2, 2097152
  %14 = icmp ult i32 %13, 4194304
  br i1 %14, label %17, label %15

15:                                               ; preds = %check_size_align.exit
  %16 = icmp ult i32 %2, 4194304
  tail call void @llvm.assume(i1 %16)
  br label %17

17:                                               ; preds = %15, %check_size_align.exit
  %18 = lshr i32 %0, 3
  %19 = lshr i32 %1, 3
  %20 = add nuw nsw i32 %19, 255
  %21 = icmp eq i32 %18, %19
  %22 = shl i32 %18, 8
  %23 = add i32 %22, 768
  %24 = and i32 %23, 768
  %25 = select i1 %21, i32 512, i32 %24
  %26 = and i32 %20, 255
  %27 = or disjoint i32 %26, %25
  %28 = shl i32 %2, 10
  %29 = or disjoint i32 %27, %28
  ret i32 %29
}